Certificate:
    Data:
        Version: 3 (0x2)
        Serial Number: 4096 (0x1000)
        Signature Algorithm: sha256WithRSAEncryption
        Issuer: C=AU, ST=Some-State, O=Internet Widgits Pty Ltd
        Validity
            Not Before: Apr 28 03:21:20 2023 GMT
            Not After : Apr 27 03:21:20 2024 GMT
        Subject: C=AU, ST=Some-State, O=Internet Widgits Pty Ltd, CN=www.nat.com
        Subject Public Key Info:
            Public Key Algorithm: rsaEncryption
                RSA Public-Key: (2048 bit)
                Modulus:
                    00:9a:d7:f1:3d:e2:48:50:8e:16:d0:69:2b:55:76:
                    c8:31:71:9c:8a:6d:8c:b2:35:da:37:90:f5:48:63:
                    4c:ce:b2:0d:7e:75:8c:43:98:ad:60:3f:36:aa:04:
                    1e:c6:b2:aa:c4:c3:60:1a:45:7c:85:45:39:7b:d7:
                    76:51:b9:73:e3:bd:33:9f:cd:d0:42:31:81:f6:76:
                    58:f7:0a:da:f8:c4:31:67:53:76:46:0d:59:e3:ef:
                    f4:2f:54:f6:ee:d3:5f:de:55:ab:ce:a2:25:a3:19:
                    ad:39:83:67:c1:0a:4e:40:00:0d:2d:a7:d5:0f:b4:
                    2b:f7:be:7d:db:b4:b1:43:b0:18:a4:92:cd:2f:8f:
                    5a:c1:2a:c0:d3:68:e3:a0:e6:73:a9:98:6e:61:bb:
                    48:54:b9:bd:1b:7a:44:a0:8e:f8:53:4a:23:65:55:
                    34:5c:be:da:fa:b2:44:31:b7:21:16:df:d7:39:31:
                    c5:42:91:03:31:13:cd:bd:12:05:35:19:83:bb:5d:
                    fd:15:e9:8b:fe:4f:66:dd:f4:1a:7b:2f:e9:7b:5c:
                    a7:03:17:44:56:95:51:76:13:79:33:ae:d5:84:a6:
                    f1:94:8c:80:a8:dd:49:01:72:19:2d:e4:de:c1:3e:
                    4a:83:10:c7:41:22:db:0f:41:1c:ea:06:eb:58:ae:
                    53:61
                Exponent: 65537 (0x10001)
        X509v3 extensions:
            X509v3 Basic Constraints: 
                CA:FALSE
            Netscape Comment: 
                OpenSSL Generated Certificate
            X509v3 Subject Key Identifier: 
                32:83:81:06:C9:69:45:0E:66:0B:07:20:4C:EA:8B:F9:6D:45:B1:30
            X509v3 Authority Key Identifier: 
                keyid:0E:DE:3E:75:5F:AF:3B:77:FD:33:D6:3E:30:46:AB:73:E5:0C:A8:6C

    Signature Algorithm: sha256WithRSAEncryption
         12:a8:98:42:57:a4:ed:1a:9b:32:42:c5:21:4a:7a:be:e5:55:
         20:9b:5c:c0:97:da:60:62:d1:7f:f4:a5:16:60:b6:c6:62:f6:
         d4:84:f6:1d:20:be:0b:5c:bd:b8:12:bb:7a:5a:31:aa:20:81:
         0d:f1:9e:35:47:e7:5b:01:29:05:4b:47:3a:b2:46:40:56:a3:
         ca:f0:69:7d:9e:1d:1b:7a:39:f3:89:3d:78:80:b2:ba:7d:5f:
         43:6c:42:de:bc:6c:e7:e0:3a:1c:40:b2:a9:da:72:c8:c8:6d:
         71:78:a6:75:1e:82:74:22:d5:60:c0:51:31:bf:49:cc:84:ef:
         84:4d:75:0f:2a:57:8b:65:11:07:23:5f:66:c4:b1:3b:f6:ae:
         e5:4a:bc:db:9a:ed:ec:4f:5b:44:6e:75:12:f3:df:74:64:99:
         be:e2:12:3c:74:1a:c7:8b:61:b8:cd:0b:e6:e0:7e:94:b3:ac:
         e9:10:fd:d2:e1:8b:71:6f:ea:fa:ce:4f:4e:42:58:d1:34:d1:
         37:73:21:1f:a1:fe:1a:79:68:75:4d:e6:d9:f7:c0:0a:a1:81:
         74:5d:0f:f4:16:bb:15:77:4f:7f:d9:eb:6c:61:bd:04:e5:65:
         db:f3:84:0f:57:f2:0d:71:ad:c1:47:02:72:81:7f:6e:15:be:
         3b:92:6f:e3:00:30:e1:c6:2a:55:de:98:11:27:90:9c:03:fb:
         d5:8a:90:13:04:6b:21:55:62:66:a8:f3:23:bf:d7:6b:36:bb:
         44:97:af:38:7c:73:ac:ff:35:7e:4b:51:44:c7:c7:87:84:f1:
         9f:11:f1:0b:f8:ac:28:96:ce:6c:5c:a5:64:fb:12:45:63:39:
         83:a3:32:a9:14:b1:9c:5f:03:e0:15:d5:43:0f:8f:cb:55:40:
         bd:0a:ac:80:ad:ce:dc:2d:f4:0d:80:dd:de:02:fa:9f:16:27:
         f1:2b:a5:2f:8e:18:13:12:cf:46:74:b7:5d:ea:a7:98:8f:ac:
         0a:ce:65:fc:cd:ae:46:ca:45:8d:07:94:06:2b:4d:e3:13:2d:
         71:36:b6:1a:25:a0:9c:8e:ca:f0:df:a0:d7:29:e0:dd:38:ac:
         ac:ce:ac:fd:ed:7b:49:4a:71:88:0b:3b:af:62:20:b3:df:36:
         65:24:6c:a9:d1:a4:8e:8b:18:e1:d3:47:0d:56:39:a1:f6:6f:
         77:4f:d1:2b:36:c0:f9:96:14:1e:49:ca:4f:5c:66:6f:5e:53:
         34:c3:01:e7:d4:38:96:45:57:86:99:1e:90:8d:9a:33:6d:91:
         4c:3a:23:6f:d4:46:60:ad:04:fe:1a:ae:50:3f:e4:1f:43:5f:
         63:9b:3b:7b:b9:46:ba:4a
-----BEGIN CERTIFICATE-----
MIIElzCCAn+gAwIBAgICEAAwDQYJKoZIhvcNAQELBQAwRTELMAkGA1UEBhMCQVUx
EzARBgNVBAgMClNvbWUtU3RhdGUxITAfBgNVBAoMGEludGVybmV0IFdpZGdpdHMg
UHR5IEx0ZDAeFw0yMzA0MjgwMzIxMjBaFw0yNDA0MjcwMzIxMjBaMFsxCzAJBgNV
BAYTAkFVMRMwEQYDVQQIDApTb21lLVN0YXRlMSEwHwYDVQQKDBhJbnRlcm5ldCBX
aWRnaXRzIFB0eSBMdGQxFDASBgNVBAMMC3d3dy5uYXQuY29tMIIBIjANBgkqhkiG
9w0BAQEFAAOCAQ8AMIIBCgKCAQEAmtfxPeJIUI4W0GkrVXbIMXGcim2MsjXaN5D1
SGNMzrINfnWMQ5itYD82qgQexrKqxMNgGkV8hUU5e9d2Ublz470zn83QQjGB9nZY
9wra+MQxZ1N2Rg1Z4+/0L1T27tNf3lWrzqIloxmtOYNnwQpOQAANLafVD7Qr9759
27SxQ7AYpJLNL49awSrA02jjoOZzqZhuYbtIVLm9G3pEoI74U0ojZVU0XL7a+rJE
MbchFt/XOTHFQpEDMRPNvRIFNRmDu139FemL/k9m3fQaey/pe1ynAxdEVpVRdhN5
M67VhKbxlIyAqN1JAXIZLeTewT5KgxDHQSLbD0Ec6gbrWK5TYQIDAQABo3sweTAJ
BgNVHRMEAjAAMCwGCWCGSAGG+EIBDQQfFh1PcGVuU1NMIEdlbmVyYXRlZCBDZXJ0
aWZpY2F0ZTAdBgNVHQ4EFgQUMoOBBslpRQ5mCwcgTOqL+W1FsTAwHwYDVR0jBBgw
FoAUDt4+dV+vO3f9M9Y+MEarc+UMqGwwDQYJKoZIhvcNAQELBQADggIBABKomEJX
pO0amzJCxSFKer7lVSCbXMCX2mBi0X/0pRZgtsZi9tSE9h0gvgtcvbgSu3paMaog
gQ3xnjVH51sBKQVLRzqyRkBWo8rwaX2eHRt6OfOJPXiAsrp9X0NsQt68bOfgOhxA
sqnacsjIbXF4pnUegnQi1WDAUTG/ScyE74RNdQ8qV4tlEQcjX2bEsTv2ruVKvNua
7exPW0RudRLz33Rkmb7iEjx0GseLYbjNC+bgfpSzrOkQ/dLhi3Fv6vrOT05CWNE0
0TdzIR+h/hp5aHVN5tn3wAqhgXRdD/QWuxV3T3/Z62xhvQTlZdvzhA9X8g1xrcFH
AnKBf24VvjuSb+MAMOHGKlXemBEnkJwD+9WKkBMEayFVYmao8yO/12s2u0SXrzh8
c6z/NX5LUUTHx4eE8Z8R8Qv4rCiWzmxcpWT7EkVjOYOjMqkUsZxfA+AV1UMPj8tV
QL0KrICtztwt9A2A3d4C+p8WJ/ErpS+OGBMSz0Z0t13qp5iPrArOZfzNrkbKRY0H
lAYrTeMTLXE2tholoJyOyvDfoNcp4N04rKzOrP3te0lKcYgLO69iILPfNmUkbKnR
pI6LGOHTRw1WOaH2b3dP0Ss2wPmWFB5Jyk9cZm9eUzTDAefUOJZFV4aZHpCNmjNt
kUw6I2/URmCtBP4arlA/5B9DX2ObO3u5RrpK
-----END CERTIFICATE-----
